target datalayout = "e-m:e-p270:32:32-p271:32:32-p272:64:64-i64:64-i128:128-f80:128-n8:16:32:64-S128"
target triple = "x86_64-pc-linux-gnu"

%struct.mbedtls_cipher_info_t = type { i32, i32, i32, ptr, i32, i32, i32, ptr }
%struct.mbedtls_cipher_base_t = type { i32, ptr, ptr, ptr, ptr, ptr }
%struct.mbedtls_cipher_context_t = type { ptr, i32, i32, [16 x i8], i64, [16 x i8], i64, ptr }

; Function Attrs: mustprogress uwtable
define hidden i32 @mbedtls_cipher_setkey(ptr noundef %0, ptr noundef %1, i32 noundef %2, i32 noundef %3) #4 {
  %5 = alloca i32, align 4
  %6 = alloca ptr, align 8
  %7 = alloca ptr, align 8
  %8 = alloca i32, align 4
  %9 = alloca i32, align 4
  store ptr %0, ptr %6, align 8, !tbaa !36
  store ptr %1, ptr %7, align 8, !tbaa !20
  store i32 %2, ptr %8, align 4, !tbaa !3
  store i32 %3, ptr %9, align 4, !tbaa !46
  br label %10

10:                                               ; preds = %4
  br label %11

11:                                               ; preds = %10
  br label %12

12:                                               ; preds = %11
  br label %13

13:                                               ; preds = %12
  br label %14

14:                                               ; preds = %13
  br label %15

15:                                               ; preds = %14
  %16 = load ptr, ptr %6, align 8, !tbaa !36
  %17 = getelementptr inbounds nuw %struct.mbedtls_cipher_context_t, ptr %16, i32 0, i32 0
  %18 = load ptr, ptr %17, align 8, !tbaa !42
  %19 = icmp eq ptr %18, null
  br i1 %19, label %20, label %21

20:                                               ; preds = %15
  store i32 -24832, ptr %5, align 4
  br label %104

21:                                               ; preds = %15
  %22 = load ptr, ptr %6, align 8, !tbaa !36
  %23 = getelementptr inbounds nuw %struct.mbedtls_cipher_context_t, ptr %22, i32 0, i32 0
  %24 = load ptr, ptr %23, align 8, !tbaa !42
  %25 = getelementptr inbounds nuw %struct.mbedtls_cipher_info_t, ptr %24, i32 0, i32 5
  %26 = load i32, ptr %25, align 4, !tbaa !47
  %27 = and i32 %26, 2
  %28 = icmp eq i32 %27, 0
  br i1 %28, label %29, label %38

29:                                               ; preds = %21
  %30 = load ptr, ptr %6, align 8, !tbaa !36
  %31 = getelementptr inbounds nuw %struct.mbedtls_cipher_context_t, ptr %30, i32 0, i32 0
  %32 = load ptr, ptr %31, align 8, !tbaa !42
  %33 = getelementptr inbounds nuw %struct.mbedtls_cipher_info_t, ptr %32, i32 0, i32 2
  %34 = load i32, ptr %33, align 8, !tbaa !33
  %35 = load i32, ptr %8, align 4, !tbaa !3
  %36 = icmp ne i32 %34, %35
  br i1 %36, label %37, label %38

37:                                               ; preds = %29
  store i32 -24832, ptr %5, align 4
  br label %104

38:                                               ; preds = %29, %21
  %39 = load i32, ptr %8, align 4, !tbaa !3
  %40 = load ptr, ptr %6, align 8, !tbaa !36
  %41 = getelementptr inbounds nuw %struct.mbedtls_cipher_context_t, ptr %40, i32 0, i32 1
  store i32 %39, ptr %41, align 8, !tbaa !48
  %42 = load i32, ptr %9, align 4, !tbaa !46
  %43 = load ptr, ptr %6, align 8, !tbaa !36
  %44 = getelementptr inbounds nuw %struct.mbedtls_cipher_context_t, ptr %43, i32 0, i32 2
  store i32 %42, ptr %44, align 4, !tbaa !49
  %45 = load i32, ptr %9, align 4, !tbaa !46
  %46 = icmp eq i32 1, %45
  br i1 %46, label %68, label %47

47:                                               ; preds = %38
  %48 = load ptr, ptr %6, align 8, !tbaa !36
  %49 = getelementptr inbounds nuw %struct.mbedtls_cipher_context_t, ptr %48, i32 0, i32 0
  %50 = load ptr, ptr %49, align 8, !tbaa !42
  %51 = getelementptr inbounds nuw %struct.mbedtls_cipher_info_t, ptr %50, i32 0, i32 1
  %52 = load i32, ptr %51, align 4, !tbaa !34
  %53 = icmp eq i32 3, %52
  br i1 %53, label %68, label %54

54:                                               ; preds = %47
  %55 = load ptr, ptr %6, align 8, !tbaa !36
  %56 = getelementptr inbounds nuw %struct.mbedtls_cipher_context_t, ptr %55, i32 0, i32 0
  %57 = load ptr, ptr %56, align 8, !tbaa !42
  %58 = getelementptr inbounds nuw %struct.mbedtls_cipher_info_t, ptr %57, i32 0, i32 1
  %59 = load i32, ptr %58, align 4, !tbaa !34
  %60 = icmp eq i32 4, %59
  br i1 %60, label %68, label %61

61:                                               ; preds = %54
  %62 = load ptr, ptr %6, align 8, !tbaa !36
  %63 = getelementptr inbounds nuw %struct.mbedtls_cipher_context_t, ptr %62, i32 0, i32 0
  %64 = load ptr, ptr %63, align 8, !tbaa !42
  %65 = getelementptr inbounds nuw %struct.mbedtls_cipher_info_t, ptr %64, i32 0, i32 1
  %66 = load i32, ptr %65, align 4, !tbaa !34
  %67 = icmp eq i32 5, %66
  br i1 %67, label %68, label %84

68:                                               ; preds = %61, %54, %47, %38
  %69 = load ptr, ptr %6, align 8, !tbaa !36
  %70 = getelementptr inbounds nuw %struct.mbedtls_cipher_context_t, ptr %69, i32 0, i32 0
  %71 = load ptr, ptr %70, align 8, !tbaa !42
  %72 = getelementptr inbounds nuw %struct.mbedtls_cipher_info_t, ptr %71, i32 0, i32 7
  %73 = load ptr, ptr %72, align 8, !tbaa !30
  %74 = getelementptr inbounds nuw %struct.mbedtls_cipher_base_t, ptr %73, i32 0, i32 2
  %75 = load ptr, ptr %74, align 8, !tbaa !50
  %76 = load ptr, ptr %6, align 8, !tbaa !36
  %77 = getelementptr inbounds nuw %struct.mbedtls_cipher_context_t, ptr %76, i32 0, i32 7
  %78 = load ptr, ptr %77, align 8, !tbaa !38
  %79 = load ptr, ptr %7, align 8, !tbaa !20
  %80 = load ptr, ptr %6, align 8, !tbaa !36
  %81 = getelementptr inbounds nuw %struct.mbedtls_cipher_context_t, ptr %80, i32 0, i32 1
  %82 = load i32, ptr %81, align 8, !tbaa !48
  %83 = call noundef i32 %75(ptr noundef %78, ptr noundef %79, i32 noundef %82)
  store i32 %83, ptr %5, align 4
  br label %104

84:                                               ; preds = %61
  %85 = load i32, ptr %9, align 4, !tbaa !46
  %86 = icmp eq i32 0, %85
  br i1 %86, label %87, label %103

87:                                               ; preds = %84
  %88 = load ptr, ptr %6, align 8, !tbaa !36
  %89 = getelementptr inbounds nuw %struct.mbedtls_cipher_context_t, ptr %88, i32 0, i32 0
  %90 = load ptr, ptr %89, align 8, !tbaa !42
  %91 = getelementptr inbounds nuw %struct.mbedtls_cipher_info_t, ptr %90, i32 0, i32 7
  %92 = load ptr, ptr %91, align 8, !tbaa !30
  %93 = getelementptr inbounds nuw %struct.mbedtls_cipher_base_t, ptr %92, i32 0, i32 3
  %94 = load ptr, ptr %93, align 8, !tbaa !51
  %95 = load ptr, ptr %6, align 8, !tbaa !36
  %96 = getelementptr inbounds nuw %struct.mbedtls_cipher_context_t, ptr %95, i32 0, i32 7
  %97 = load ptr, ptr %96, align 8, !tbaa !38
  %98 = load ptr, ptr %7, align 8, !tbaa !20
  %99 = load ptr, ptr %6, align 8, !tbaa !36
  %100 = getelementptr inbounds nuw %struct.mbedtls_cipher_context_t, ptr %99, i32 0, i32 1
  %101 = load i32, ptr %100, align 8, !tbaa !48
  %102 = call noundef i32 %94(ptr noundef %97, ptr noundef %98, i32 noundef %101)
  store i32 %102, ptr %5, align 4
  br label %104

103:                                              ; preds = %84
  store i32 -24832, ptr %5, align 4
  br label %104

104:                                              ; preds = %103, %87, %68, %37, %20
  %105 = load i32, ptr %5, align 4
  ret i32 %105
}