; Function Attrs: mustprogress uwtable
define hidden noundef i32 @mbedtls_cipher_setkey(ptr noundef captures(none) %0, ptr noundef %1, i32 noundef %2, i32 noundef %3) local_unnamed_addr #8 {
  %5 = load ptr, ptr %0, align 8, !tbaa !33
  %6 = icmp eq ptr %5, null
  br i1 %6, label %31, label %7

7:                                                ; preds = %4
  %8 = getelementptr inbounds nuw i8, ptr %5, i64 28
  %9 = load i32, ptr %8, align 4, !tbaa !36
  %10 = and i32 %9, 2
  %11 = icmp eq i32 %10, 0
  br i1 %11, label %12, label %15

12:                                               ; preds = %7
  %13 = getelementptr inbounds nuw i8, ptr %5, i64 8
  %14 = load i32, ptr %13, align 8, !tbaa !26
  %.not = icmp eq i32 %14, %2
  br i1 %.not, label %15, label %31

15:                                               ; preds = %12, %7
  %16 = getelementptr inbounds nuw i8, ptr %0, i64 8
  store i32 %2, ptr %16, align 8, !tbaa !37
  %17 = getelementptr inbounds nuw i8, ptr %0, i64 12
  store i32 %3, ptr %17, align 4, !tbaa !38
  %18 = icmp eq i32 %3, 1
  br i1 %18, label %.sink.split, label %19

19:                                               ; preds = %15
  %20 = getelementptr inbounds nuw i8, ptr %5, i64 4
  %21 = load i32, ptr %20, align 4, !tbaa !27
  %.off = add i32 %21, -3
  %switch = icmp ult i32 %.off, 3
  br i1 %switch, label %.sink.split, label %22

22:                                               ; preds = %19
  %23 = icmp eq i32 %3, 0
  br i1 %23, label %.sink.split, label %31

.sink.split:                                      ; preds = %22, %15, %19
  %.sink27 = phi i64 [ 16, %19 ], [ 16, %15 ], [ 24, %22 ]
  %24 = getelementptr inbounds nuw i8, ptr %5, i64 40
  %25 = load ptr, ptr %24, align 8, !tbaa !22
  %26 = getelementptr inbounds nuw i8, ptr %25, i64 %.sink27
  %27 = load ptr, ptr %26, align 8, !tbaa !39
  %28 = getelementptr inbounds nuw i8, ptr %0, i64 64
  %29 = load ptr, ptr %28, align 8, !tbaa !29
  %30 = tail call noundef i32 %27(ptr noundef %29, ptr noundef %1, i32 noundef %2)
  br label %31

31:                                               ; preds = %.sink.split, %22, %12, %4
  %.0 = phi i32 [ -24832, %4 ], [ -24832, %12 ], [ -24832, %22 ], [ %30, %.sink.split ]
  ret i32 %.0
}